target datalayout = "e-m:e-p270:32:32-p271:32:32-p272:64:64-i64:64-i128:128-f80:128-n8:16:32:64-S128"
target triple = "x86_64-unknown-linux-gnu"

%"class.snappy::SnappyDecompressor" = type <{ ptr, ptr, ptr, ptr, i32, i8, [5 x i8], [6 x i8] }>

@_ZZN6snappyL18LeftShiftOverflowsEhjE5masks = internal constant [32 x i8] c"\00\00\00\00\00\00\00\00\00\00\00\00\00\00\00\00\00\00\00\00\00\00\00\00\00\80\C0\E0\F0\F8\FC\FE", align 16

; Function Attrs: mustprogress nounwind uwtable
define internal noundef zeroext i1 @_ZN6snappyL18LeftShiftOverflowsEhj(i8 noundef zeroext %value, i32 noundef %shift) #0 {
entry:
  %value.addr = alloca i8, align 1
  %shift.addr = alloca i32, align 4
  store i8 %value, ptr %value.addr, align 1
  store i32 %shift, ptr %shift.addr, align 4
  %0 = load i8, ptr %value.addr, align 1
  %conv = zext i8 %0 to i32
  %1 = load i32, ptr %shift.addr, align 4
  %idxprom = zext i32 %1 to i64
  %arrayidx = getelementptr inbounds [32 x i8], ptr @_ZZN6snappyL18LeftShiftOverflowsEhjE5masks, i64 0, i64 %idxprom
  %2 = load i8, ptr %arrayidx, align 1
  %conv1 = zext i8 %2 to i32
  %and = and i32 %conv, %conv1
  %cmp = icmp ne i32 %and, 0
  ret i1 %cmp
}

; Function Attrs: mustprogress nounwind uwtable
define linkonce_odr dso_local void @_ZN6snappy18SnappyDecompressorD2Ev(ptr noundef nonnull align 8 dereferenceable(42) %this) unnamed_addr #0 comdat align 2 {
entry:
  %this.addr = alloca ptr, align 8
  store ptr %this, ptr %this.addr, align 8
  %this1 = load ptr, ptr %this.addr, align 8
  %reader_ = getelementptr inbounds %"class.snappy::SnappyDecompressor", ptr %this1, i32 0, i32 0
  %0 = load ptr, ptr %reader_, align 8
  %peeked_ = getelementptr inbounds %"class.snappy::SnappyDecompressor", ptr %this1, i32 0, i32 4
  %1 = load i32, ptr %peeked_, align 8
  %conv = zext i32 %1 to i64
  %vtable = load ptr, ptr %0, align 8
  %vfn = getelementptr inbounds ptr, ptr %vtable, i64 4
  %2 = load ptr, ptr %vfn, align 8
  call void %2(ptr noundef nonnull align 8 dereferenceable(8) %0, i64 noundef %conv)
  ret void
}

; Function Attrs: mustprogress nounwind uwtable
define linkonce_odr dso_local noundef zeroext i1 @_ZN6snappy18SnappyDecompressor22ReadUncompressedLengthEPj(ptr noundef nonnull align 8 dereferenceable(42) %this, ptr noundef %result) #0 comdat align 2 {
entry:
  %retval = alloca i1, align 1
  %this.addr = alloca ptr, align 8
  %result.addr = alloca ptr, align 8
  %shift = alloca i32, align 4
  %n = alloca i64, align 8
  %ip = alloca ptr, align 8
  %c = alloca i8, align 1
  %val = alloca i32, align 4
  store ptr %this, ptr %this.addr, align 8
  store ptr %result, ptr %result.addr, align 8
  %this1 = load ptr, ptr %this.addr, align 8
  %0 = load ptr, ptr %result.addr, align 8
  store i32 0, ptr %0, align 4
  store i32 0, ptr %shift, align 4
  br label %while.body

while.body:                                       ; preds = %if.end15, %entry
  %1 = load i32, ptr %shift, align 4
  %cmp = icmp uge i32 %1, 32
  br i1 %cmp, label %if.then, label %if.end

if.then:                                          ; preds = %while.body
  store i1 false, ptr %retval, align 1
  br label %return

if.end:                                           ; preds = %while.body
  %reader_ = getelementptr inbounds %"class.snappy::SnappyDecompressor", ptr %this1, i32 0, i32 0
  %2 = load ptr, ptr %reader_, align 8
  %vtable = load ptr, ptr %2, align 8
  %vfn = getelementptr inbounds ptr, ptr %vtable, i64 3
  %3 = load ptr, ptr %vfn, align 8
  %call = call noundef ptr %3(ptr noundef nonnull align 8 dereferenceable(8) %2, ptr noundef %n)
  store ptr %call, ptr %ip, align 8
  %4 = load i64, ptr %n, align 8
  %cmp2 = icmp eq i64 %4, 0
  br i1 %cmp2, label %if.then3, label %if.end4

if.then3:                                         ; preds = %if.end
  store i1 false, ptr %retval, align 1
  br label %return

if.end4:                                          ; preds = %if.end
  %5 = load ptr, ptr %ip, align 8
  %6 = load i8, ptr %5, align 1
  store i8 %6, ptr %c, align 1
  %reader_5 = getelementptr inbounds %"class.snappy::SnappyDecompressor", ptr %this1, i32 0, i32 0
  %7 = load ptr, ptr %reader_5, align 8
  %vtable6 = load ptr, ptr %7, align 8
  %vfn7 = getelementptr inbounds ptr, ptr %vtable6, i64 4
  %8 = load ptr, ptr %vfn7, align 8
  call void %8(ptr noundef nonnull align 8 dereferenceable(8) %7, i64 noundef 1)
  %9 = load i8, ptr %c, align 1
  %conv = zext i8 %9 to i32
  %and = and i32 %conv, 127
  store i32 %and, ptr %val, align 4
  %10 = load i32, ptr %val, align 4
  %conv8 = trunc i32 %10 to i8
  %11 = load i32, ptr %shift, align 4
  %call9 = call noundef zeroext i1 @_ZN6snappyL18LeftShiftOverflowsEhj(i8 noundef zeroext %conv8, i32 noundef %11)
  br i1 %call9, label %if.then10, label %if.end11

if.then10:                                        ; preds = %if.end4
  store i1 false, ptr %retval, align 1
  br label %return

if.end11:                                         ; preds = %if.end4
  %12 = load i32, ptr %val, align 4
  %13 = load i32, ptr %shift, align 4
  %shl = shl i32 %12, %13
  %14 = load ptr, ptr %result.addr, align 8
  %15 = load i32, ptr %14, align 4
  %or = or i32 %15, %shl
  store i32 %or, ptr %14, align 4
  %16 = load i8, ptr %c, align 1
  %conv12 = zext i8 %16 to i32
  %cmp13 = icmp slt i32 %conv12, 128
  br i1 %cmp13, label %if.then14, label %if.end15

if.then14:                                        ; preds = %if.end11
  br label %while.end

if.end15:                                         ; preds = %if.end11
  %17 = load i32, ptr %shift, align 4
  %add = add i32 %17, 7
  store i32 %add, ptr %shift, align 4
  br label %while.body, !llvm.loop !18

while.end:                                        ; preds = %if.then14
  store i1 true, ptr %retval, align 1
  br label %return

return:                                           ; preds = %while.end, %if.then10, %if.then3, %if.then
  %18 = load i1, ptr %retval, align 1
  ret i1 %18
}

; Function Attrs: mustprogress nounwind uwtable
define linkonce_odr dso_local void @_ZN6snappy18SnappyDecompressorC2EPNS_6SourceE(ptr noundef nonnull align 8 dereferenceable(42) %this, ptr noundef %reader) unnamed_addr #0 comdat align 2 {
entry:
  %this.addr = alloca ptr, align 8
  %reader.addr = alloca ptr, align 8
  store ptr %this, ptr %this.addr, align 8
  store ptr %reader, ptr %reader.addr, align 8
  %this1 = load ptr, ptr %this.addr, align 8
  %reader_ = getelementptr inbounds %"class.snappy::SnappyDecompressor", ptr %this1, i32 0, i32 0
  %0 = load ptr, ptr %reader.addr, align 8
  store ptr %0, ptr %reader_, align 8
  %ip_ = getelementptr inbounds %"class.snappy::SnappyDecompressor", ptr %this1, i32 0, i32 1
  store ptr null, ptr %ip_, align 8
  %ip_limit_ = getelementptr inbounds %"class.snappy::SnappyDecompressor", ptr %this1, i32 0, i32 2
  store ptr null, ptr %ip_limit_, align 8
  %peeked_ = getelementptr inbounds %"class.snappy::SnappyDecompressor", ptr %this1, i32 0, i32 4
  store i32 0, ptr %peeked_, align 8
  %eof_ = getelementptr inbounds %"class.snappy::SnappyDecompressor", ptr %this1, i32 0, i32 5
  store i8 0, ptr %eof_, align 4
  ret void
}

; Function Attrs: mustprogress nounwind uwtable
define dso_local noundef zeroext i1 @_ZN6snappy21GetUncompressedLengthEPNS_6SourceEPj(ptr noundef %source, ptr noundef %result) #0 {
entry:
  %source.addr = alloca ptr, align 8
  %result.addr = alloca ptr, align 8
  %decompressor = alloca %"class.snappy::SnappyDecompressor", align 8
  store ptr %source, ptr %source.addr, align 8
  store ptr %result, ptr %result.addr, align 8
  %0 = load ptr, ptr %source.addr, align 8
  call void @_ZN6snappy18SnappyDecompressorC2EPNS_6SourceE(ptr noundef nonnull align 8 dereferenceable(42) %decompressor, ptr noundef %0)
  %1 = load ptr, ptr %result.addr, align 8
  %call = call noundef zeroext i1 @_ZN6snappy18SnappyDecompressor22ReadUncompressedLengthEPj(ptr noundef nonnull align 8 dereferenceable(42) %decompressor, ptr noundef %1)
  call void @_ZN6snappy18SnappyDecompressorD2Ev(ptr noundef nonnull align 8 dereferenceable(42) %decompressor) #11
  ret i1 %call
}