; Function Attrs: mustprogress nounwind uwtable
define dso_local noundef zeroext i1 @_ZN6snappy21GetUncompressedLengthEPNS_6SourceEPj(ptr noundef %source, ptr nocapture noundef %result) local_unnamed_addr #2 {
entry:
  %n.i = alloca i64, align 8
  call void @llvm.lifetime.start.p0(i64 8, ptr nonnull %n.i)
  store i32 0, ptr %result, align 4
  br label %if.end.i

while.body.i:                                     ; preds = %if.end11.i
  %indvars.iv.next.i = add nuw nsw i64 %indvars.iv.i, 7
  %cmp.i = icmp ugt i64 %indvars.iv.i, 24
  br i1 %cmp.i, label %_ZN6snappy18SnappyDecompressor22ReadUncompressedLengthEPj.exit, label %if.end.i, !llvm.loop !20

if.end.i:                                         ; preds = %while.body.i, %entry
  %indvars.iv.i = phi i64 [ 0, %entry ], [ %indvars.iv.next.i, %while.body.i ]
  %vtable.i = load ptr, ptr %source, align 8
  %vfn.i = getelementptr inbounds i8, ptr %vtable.i, i64 24
  %0 = load ptr, ptr %vfn.i, align 8
  %call.i = call noundef ptr %0(ptr noundef nonnull align 8 dereferenceable(8) %source, ptr noundef nonnull %n.i) #19
  %1 = load i64, ptr %n.i, align 8
  %cmp2.i = icmp eq i64 %1, 0
  br i1 %cmp2.i, label %_ZN6snappy18SnappyDecompressor22ReadUncompressedLengthEPj.exit, label %if.end4.i

if.end4.i:                                        ; preds = %if.end.i
  %2 = load i8, ptr %call.i, align 1
  %vtable6.i = load ptr, ptr %source, align 8
  %vfn7.i = getelementptr inbounds i8, ptr %vtable6.i, i64 32
  %3 = load ptr, ptr %vfn7.i, align 8
  call void %3(ptr noundef nonnull align 8 dereferenceable(8) %source, i64 noundef 1) #19
  %4 = and i8 %2, 127
  %arrayidx.i.i = getelementptr inbounds [32 x i8], ptr @_ZZN6snappyL18LeftShiftOverflowsEhjE5masks, i64 0, i64 %indvars.iv.i
  %5 = load i8, ptr %arrayidx.i.i, align 1
  %and1.i.i = and i8 %5, %4
  %cmp.i.not.i = icmp eq i8 %and1.i.i, 0
  br i1 %cmp.i.not.i, label %if.end11.i, label %_ZN6snappy18SnappyDecompressor22ReadUncompressedLengthEPj.exit

if.end11.i:                                       ; preds = %if.end4.i
  %and.i = zext nneg i8 %4 to i32
  %6 = trunc i64 %indvars.iv.i to i32
  %shl.i = shl i32 %and.i, %6
  %7 = load i32, ptr %result, align 4
  %or.i = or i32 %7, %shl.i
  store i32 %or.i, ptr %result, align 4
  %cmp13.i = icmp sgt i8 %2, -1
  br i1 %cmp13.i, label %_ZN6snappy18SnappyDecompressor22ReadUncompressedLengthEPj.exit, label %while.body.i

_ZN6snappy18SnappyDecompressor22ReadUncompressedLengthEPj.exit: ; preds = %while.body.i, %if.end.i, %if.end4.i, %if.end11.i
  %retval.0.i = phi i1 [ false, %while.body.i ], [ false, %if.end.i ], [ false, %if.end4.i ], [ true, %if.end11.i ]
  call void @llvm.lifetime.end.p0(i64 8, ptr nonnull %n.i)
  %vtable.i2 = load ptr, ptr %source, align 8
  %vfn.i3 = getelementptr inbounds i8, ptr %vtable.i2, i64 32
  %8 = load ptr, ptr %vfn.i3, align 8
  call void %8(ptr noundef nonnull align 8 dereferenceable(8) %source, i64 noundef 0) #19
  ret i1 %retval.0.i
}